target datalayout = "e-m:e-p270:32:32-p271:32:32-p272:64:64-i64:64-i128:128-f80:128-n8:16:32:64-S128"
target triple = "x86_64-unknown-linux-gnu"

%class.svector.5 = type { %class.vector.6 }
%class.vector.6 = type { ptr }
%class.ptr_vector.38 = type { %class.vector.39 }
%class.vector.39 = type { ptr }
%"class.smt::theory" = type <{ ptr, i32, [4 x i8], ptr, ptr, %class.ptr_vector.38, %class.svector.5, i32, i8, [3 x i8] }>
%class.obj_ref = type { ptr, ptr }
%class.vector.307 = type { ptr }

; Function Attrs: mustprogress nounwind uwtable
define linkonce_odr hidden noundef ptr @_ZNK7obj_refI4expr11ast_managerE3getEv(ptr noundef nonnull align 8 dereferenceable(16) %this) #4 comdat align 2 {
entry:
  %this.addr = alloca ptr, align 8
  store ptr %this, ptr %this.addr, align 8
  %this1 = load ptr, ptr %this.addr, align 8
  %m_obj = getelementptr inbounds %class.obj_ref, ptr %this1, i32 0, i32 0
  %0 = load ptr, ptr %m_obj, align 8
  ret ptr %0
}

; Function Attrs: mustprogress uwtable
define linkonce_odr hidden noundef zeroext i1 @_ZeqI4expr11ast_managerEbRK7obj_refIT_T0_ES7_(ptr noundef nonnull align 8 dereferenceable(16) %n1, ptr noundef nonnull align 8 dereferenceable(16) %n2) #5 comdat {
entry:
  %n1.addr = alloca ptr, align 8
  %n2.addr = alloca ptr, align 8
  store ptr %n1, ptr %n1.addr, align 8
  store ptr %n2, ptr %n2.addr, align 8
  %0 = load ptr, ptr %n1.addr, align 8
  %call = call noundef ptr @_ZNK7obj_refI4expr11ast_managerE3getEv(ptr noundef nonnull align 8 dereferenceable(16) %0)
  %1 = load ptr, ptr %n2.addr, align 8
  %call1 = call noundef ptr @_ZNK7obj_refI4expr11ast_managerE3getEv(ptr noundef nonnull align 8 dereferenceable(16) %1)
  %cmp = icmp eq ptr %call, %call1
  ret i1 %cmp
}

; Function Attrs: mustprogress nounwind uwtable
define linkonce_odr hidden void @_ZN6vectorIN3sat7literalELb0EjE5resetEv(ptr noundef nonnull align 8 dereferenceable(8) %this) #4 comdat align 2 {
entry:
  %this.addr = alloca ptr, align 8
  store ptr %this, ptr %this.addr, align 8
  %this1 = load ptr, ptr %this.addr, align 8
  %m_data = getelementptr inbounds %class.vector.307, ptr %this1, i32 0, i32 0
  %0 = load ptr, ptr %m_data, align 8
  %tobool = icmp ne ptr %0, null
  br i1 %tobool, label %if.then, label %if.end

if.then:                                          ; preds = %entry
  %m_data2 = getelementptr inbounds %class.vector.307, ptr %this1, i32 0, i32 0
  %1 = load ptr, ptr %m_data2, align 8
  %arrayidx = getelementptr inbounds i32, ptr %1, i64 -1
  store i32 0, ptr %arrayidx, align 4
  br label %if.end

if.end:                                           ; preds = %if.then, %entry
  ret void
}

; Function Attrs: mustprogress nounwind uwtable
define linkonce_odr hidden void @_ZN7obj_refI4expr11ast_managerEC2ERS1_(ptr noundef nonnull align 8 dereferenceable(16) %this, ptr noundef nonnull align 8 dereferenceable(976) %m) unnamed_addr #4 comdat align 2 {
entry:
  %this.addr = alloca ptr, align 8
  %m.addr = alloca ptr, align 8
  store ptr %this, ptr %this.addr, align 8
  store ptr %m, ptr %m.addr, align 8
  %this1 = load ptr, ptr %this.addr, align 8
  %m_obj = getelementptr inbounds %class.obj_ref, ptr %this1, i32 0, i32 0
  store ptr null, ptr %m_obj, align 8
  %m_manager = getelementptr inbounds %class.obj_ref, ptr %this1, i32 0, i32 1
  %0 = load ptr, ptr %m.addr, align 8
  store ptr %0, ptr %m_manager, align 8
  ret void
}

; Function Attrs: mustprogress uwtable
define hidden noundef zeroext i1 @_ZN3smt10theory_seq13reduce_lengthEP4exprS2_R7svectorIN3sat7literalEjE(ptr noundef nonnull align 8 dereferenceable(4328) %this, ptr noundef %l, ptr noundef %r, ptr noundef nonnull align 8 dereferenceable(8) %lits) #5 align 2 personality ptr @__gxx_personality_v0 {
entry:
  %retval = alloca i1, align 1
  %this.addr = alloca ptr, align 8
  %l.addr = alloca ptr, align 8
  %r.addr = alloca ptr, align 8
  %lits.addr = alloca ptr, align 8
  %len1 = alloca %class.obj_ref, align 8
  %len2 = alloca %class.obj_ref, align 8
  %exn.slot = alloca ptr, align 8
  %ehselector.slot = alloca i32, align 4
  %cleanup.dest.slot = alloca i32, align 4
  store ptr %this, ptr %this.addr, align 8
  store ptr %l, ptr %l.addr, align 8
  store ptr %r, ptr %r.addr, align 8
  store ptr %lits, ptr %lits.addr, align 8
  %this1 = load ptr, ptr %this.addr, align 8
  %m = getelementptr inbounds %"class.smt::theory", ptr %this1, i32 0, i32 4
  %0 = load ptr, ptr %m, align 8
  call void @_ZN7obj_refI4expr11ast_managerEC2ERS1_(ptr noundef nonnull align 8 dereferenceable(16) %len1, ptr noundef nonnull align 8 dereferenceable(976) %0)
  %m2 = getelementptr inbounds %"class.smt::theory", ptr %this1, i32 0, i32 4
  %1 = load ptr, ptr %m2, align 8
  invoke void @_ZN7obj_refI4expr11ast_managerEC2ERS1_(ptr noundef nonnull align 8 dereferenceable(16) %len2, ptr noundef nonnull align 8 dereferenceable(976) %1)
          to label %invoke.cont unwind label %lpad

invoke.cont:                                      ; preds = %entry
  %2 = load ptr, ptr %lits.addr, align 8
  invoke void @_ZN6vectorIN3sat7literalELb0EjE5resetEv(ptr noundef nonnull align 8 dereferenceable(8) %2)
          to label %invoke.cont4 unwind label %lpad3

invoke.cont4:                                     ; preds = %invoke.cont
  %3 = load ptr, ptr %l.addr, align 8
  %4 = load ptr, ptr %lits.addr, align 8
  %call = invoke noundef zeroext i1 @_ZN3smt10theory_seq10get_lengthEP4exprR7obj_refIS1_11ast_managerER7svectorIN3sat7literalEjE(ptr noundef nonnull align 8 dereferenceable(4328) %this1, ptr noundef %3, ptr noundef nonnull align 8 dereferenceable(16) %len1, ptr noundef nonnull align 8 dereferenceable(8) %4)
          to label %invoke.cont5 unwind label %lpad3

invoke.cont5:                                     ; preds = %invoke.cont4
  br i1 %call, label %land.lhs.true, label %if.else

land.lhs.true:                                    ; preds = %invoke.cont5
  %5 = load ptr, ptr %r.addr, align 8
  %6 = load ptr, ptr %lits.addr, align 8
  %call7 = invoke noundef zeroext i1 @_ZN3smt10theory_seq10get_lengthEP4exprR7obj_refIS1_11ast_managerER7svectorIN3sat7literalEjE(ptr noundef nonnull align 8 dereferenceable(4328) %this1, ptr noundef %5, ptr noundef nonnull align 8 dereferenceable(16) %len2, ptr noundef nonnull align 8 dereferenceable(8) %6)
          to label %invoke.cont6 unwind label %lpad3

invoke.cont6:                                     ; preds = %land.lhs.true
  br i1 %call7, label %land.lhs.true8, label %if.else

land.lhs.true8:                                   ; preds = %invoke.cont6
  %call10 = invoke noundef zeroext i1 @_ZeqI4expr11ast_managerEbRK7obj_refIT_T0_ES7_(ptr noundef nonnull align 8 dereferenceable(16) %len1, ptr noundef nonnull align 8 dereferenceable(16) %len2)
          to label %invoke.cont9 unwind label %lpad3

invoke.cont9:                                     ; preds = %land.lhs.true8
  br i1 %call10, label %if.then, label %if.else

if.then:                                          ; preds = %invoke.cont9
  store i1 true, ptr %retval, align 1
  store i32 1, ptr %cleanup.dest.slot, align 4
  br label %cleanup

lpad:                                             ; preds = %entry
  %7 = landingpad { ptr, i32 }
          cleanup
  %8 = extractvalue { ptr, i32 } %7, 0
  store ptr %8, ptr %exn.slot, align 8
  %9 = extractvalue { ptr, i32 } %7, 1
  store i32 %9, ptr %ehselector.slot, align 4
  br label %ehcleanup

lpad3:                                            ; preds = %land.lhs.true8, %land.lhs.true, %invoke.cont4, %invoke.cont
  %10 = landingpad { ptr, i32 }
          cleanup
  %11 = extractvalue { ptr, i32 } %10, 0
  store ptr %11, ptr %exn.slot, align 8
  %12 = extractvalue { ptr, i32 } %10, 1
  store i32 %12, ptr %ehselector.slot, align 4
  call void @_ZN7obj_refI4expr11ast_managerED2Ev(ptr noundef nonnull align 8 dereferenceable(16) %len2) #3
  br label %ehcleanup

if.else:                                          ; preds = %invoke.cont9, %invoke.cont6, %invoke.cont5
  store i1 false, ptr %retval, align 1
  store i32 1, ptr %cleanup.dest.slot, align 4
  br label %cleanup

cleanup:                                          ; preds = %if.else, %if.then
  call void @_ZN7obj_refI4expr11ast_managerED2Ev(ptr noundef nonnull align 8 dereferenceable(16) %len2) #3
  call void @_ZN7obj_refI4expr11ast_managerED2Ev(ptr noundef nonnull align 8 dereferenceable(16) %len1) #3
  %13 = load i1, ptr %retval, align 1
  ret i1 %13

ehcleanup:                                        ; preds = %lpad3, %lpad
  call void @_ZN7obj_refI4expr11ast_managerED2Ev(ptr noundef nonnull align 8 dereferenceable(16) %len1) #3
  br label %eh.resume

eh.resume:                                        ; preds = %ehcleanup
  %exn = load ptr, ptr %exn.slot, align 8
  %sel = load i32, ptr %ehselector.slot, align 4
  %lpad.val = insertvalue { ptr, i32 } poison, ptr %exn, 0
  %lpad.val12 = insertvalue { ptr, i32 } %lpad.val, i32 %sel, 1
  resume { ptr, i32 } %lpad.val12
}