; Function Attrs: mustprogress uwtable
define hidden noundef zeroext i1 @_ZN3smt10theory_seq13reduce_lengthEP4exprS2_R7svectorIN3sat7literalEjE(ptr noundef nonnull align 8 dereferenceable(4328) %this, ptr noundef %l, ptr noundef %r, ptr noundef nonnull align 8 dereferenceable(8) %lits) local_unnamed_addr #3 align 2 personality ptr @__gxx_personality_v0 {
entry:
  %len1 = alloca %class.obj_ref, align 8
  %len2 = alloca %class.obj_ref, align 8
  %m = getelementptr inbounds i8, ptr %this, i64 24
  %0 = load ptr, ptr %m, align 8
  store ptr null, ptr %len1, align 8
  %m_manager.i = getelementptr inbounds i8, ptr %len1, i64 8
  store ptr %0, ptr %m_manager.i, align 8
  store ptr null, ptr %len2, align 8
  %m_manager.i3 = getelementptr inbounds i8, ptr %len2, i64 8
  store ptr %0, ptr %m_manager.i3, align 8
  %1 = load ptr, ptr %lits, align 8
  %tobool.not.i = icmp eq ptr %1, null
  br i1 %tobool.not.i, label %_ZN6vectorIN3sat7literalELb0EjE5resetEv.exit, label %if.then.i

if.then.i:                                        ; preds = %entry
  %arrayidx.i = getelementptr inbounds i8, ptr %1, i64 -4
  store i32 0, ptr %arrayidx.i, align 4
  br label %_ZN6vectorIN3sat7literalELb0EjE5resetEv.exit

_ZN6vectorIN3sat7literalELb0EjE5resetEv.exit:     ; preds = %entry, %if.then.i
  %call = invoke noundef zeroext i1 @_ZN3smt10theory_seq10get_lengthEP4exprR7obj_refIS1_11ast_managerER7svectorIN3sat7literalEjE(ptr noundef nonnull align 8 dereferenceable(4328) %this, ptr noundef %l, ptr noundef nonnull align 8 dereferenceable(16) %len1, ptr noundef nonnull align 8 dereferenceable(8) %lits)
          to label %invoke.cont5 unwind label %lpad3

invoke.cont5:                                     ; preds = %_ZN6vectorIN3sat7literalELb0EjE5resetEv.exit
  br i1 %call, label %land.lhs.true, label %_ZN7obj_refI4expr11ast_managerED2Ev.exit

land.lhs.true:                                    ; preds = %invoke.cont5
  %call7 = invoke noundef zeroext i1 @_ZN3smt10theory_seq10get_lengthEP4exprR7obj_refIS1_11ast_managerER7svectorIN3sat7literalEjE(ptr noundef nonnull align 8 dereferenceable(4328) %this, ptr noundef %r, ptr noundef nonnull align 8 dereferenceable(16) %len2, ptr noundef nonnull align 8 dereferenceable(8) %lits)
          to label %invoke.cont6 unwind label %lpad3

invoke.cont6:                                     ; preds = %land.lhs.true
  %.pr.pre = load ptr, ptr %len2, align 8
  %2 = load ptr, ptr %len1, align 8
  %cmp.i = icmp eq ptr %2, %.pr.pre
  %retval.0 = select i1 %call7, i1 %cmp.i, i1 false
  %tobool.not.i.i = icmp eq ptr %.pr.pre, null
  br i1 %tobool.not.i.i, label %_ZN7obj_refI4expr11ast_managerED2Ev.exit, label %if.then.i.i.i

lpad3:                                            ; preds = %land.lhs.true, %_ZN6vectorIN3sat7literalELb0EjE5resetEv.exit
  %3 = landingpad { ptr, i32 }
          cleanup
  call void @_ZN7obj_refI4expr11ast_managerED2Ev(ptr noundef nonnull align 8 dereferenceable(16) %len2) #23
  call void @_ZN7obj_refI4expr11ast_managerED2Ev(ptr noundef nonnull align 8 dereferenceable(16) %len1) #23
  resume { ptr, i32 } %3

if.then.i.i.i:                                    ; preds = %invoke.cont6
  %4 = load ptr, ptr %m_manager.i3, align 8
  %m_ref_count.i.i.i.i = getelementptr inbounds i8, ptr %.pr.pre, i64 8
  %5 = load i32, ptr %m_ref_count.i.i.i.i, align 4
  %dec.i.i.i.i = add i32 %5, -1
  store i32 %dec.i.i.i.i, ptr %m_ref_count.i.i.i.i, align 4
  %cmp.i.i.i = icmp eq i32 %dec.i.i.i.i, 0
  br i1 %cmp.i.i.i, label %if.then2.i.i.i, label %_ZN7obj_refI4expr11ast_managerED2Ev.exit

if.then2.i.i.i:                                   ; preds = %if.then.i.i.i
  invoke void @_ZN11ast_manager11delete_nodeEP3ast(ptr noundef nonnull align 8 dereferenceable(976) %4, ptr noundef nonnull %.pr.pre)
          to label %_ZN7obj_refI4expr11ast_managerED2Ev.exit unwind label %terminate.lpad.i

terminate.lpad.i:                                 ; preds = %if.then2.i.i.i
  %6 = landingpad { ptr, i32 }
          catch ptr null
  %7 = extractvalue { ptr, i32 } %6, 0
  call void @__clang_call_terminate(ptr %7) #25
  unreachable

_ZN7obj_refI4expr11ast_managerED2Ev.exit:         ; preds = %invoke.cont5, %invoke.cont6, %if.then.i.i.i, %if.then2.i.i.i
  %retval.016 = phi i1 [ %retval.0, %invoke.cont6 ], [ %retval.0, %if.then.i.i.i ], [ %retval.0, %if.then2.i.i.i ], [ false, %invoke.cont5 ]
  %8 = load ptr, ptr %len1, align 8
  %tobool.not.i.i4 = icmp eq ptr %8, null
  br i1 %tobool.not.i.i4, label %_ZN7obj_refI4expr11ast_managerED2Ev.exit12, label %if.then.i.i.i5

if.then.i.i.i5:                                   ; preds = %_ZN7obj_refI4expr11ast_managerED2Ev.exit
  %9 = load ptr, ptr %m_manager.i, align 8
  %m_ref_count.i.i.i.i7 = getelementptr inbounds i8, ptr %8, i64 8
  %10 = load i32, ptr %m_ref_count.i.i.i.i7, align 4
  %dec.i.i.i.i8 = add i32 %10, -1
  store i32 %dec.i.i.i.i8, ptr %m_ref_count.i.i.i.i7, align 4
  %cmp.i.i.i9 = icmp eq i32 %dec.i.i.i.i8, 0
  br i1 %cmp.i.i.i9, label %if.then2.i.i.i10, label %_ZN7obj_refI4expr11ast_managerED2Ev.exit12

if.then2.i.i.i10:                                 ; preds = %if.then.i.i.i5
  invoke void @_ZN11ast_manager11delete_nodeEP3ast(ptr noundef nonnull align 8 dereferenceable(976) %9, ptr noundef nonnull %8)
          to label %_ZN7obj_refI4expr11ast_managerED2Ev.exit12 unwind label %terminate.lpad.i11

terminate.lpad.i11:                               ; preds = %if.then2.i.i.i10
  %11 = landingpad { ptr, i32 }
          catch ptr null
  %12 = extractvalue { ptr, i32 } %11, 0
  call void @__clang_call_terminate(ptr %12) #25
  unreachable

_ZN7obj_refI4expr11ast_managerED2Ev.exit12:       ; preds = %_ZN7obj_refI4expr11ast_managerED2Ev.exit, %if.then.i.i.i5, %if.then2.i.i.i10
  ret i1 %retval.016
}